target datalayout = "e-m:e-p270:32:32-p271:32:32-p272:64:64-i64:64-i128:128-f80:128-n8:16:32:64-S128"
target triple = "x86_64-pc-linux-gnu"

%struct.wtap_dumper = type { ptr, i32, i32, i32, i32, i8, i64, ptr, ptr, ptr, ptr, ptr, ptr, ptr, ptr, ptr, ptr, ptr, ptr, ptr, i32, i32, i32 }
%struct.k12_dump_t = type { i32, i32, i32 }

@k12_file_magic = internal constant [8 x i8] c"\00\00\02\00\12\05\00\10", align 1

; Function Attrs: null_pointer_is_valid sspstrong uwtable
define internal zeroext i1 @k12_dump_open(ptr noundef %0, ptr noundef %1, ptr noundef %2) #0 {
  %4 = alloca i1, align 1
  %5 = alloca ptr, align 8
  %6 = alloca ptr, align 8
  %7 = alloca ptr, align 8
  %8 = alloca ptr, align 8
  %9 = alloca i32, align 4
  %10 = alloca i64, align 8
  %11 = alloca i64, align 8
  %12 = alloca ptr, align 8
  %13 = alloca ptr, align 8
  store ptr %0, ptr %5, align 8
  store ptr %1, ptr %6, align 8
  store ptr %2, ptr %7, align 8
  call void @llvm.lifetime.start.p0(i64 8, ptr %8) #14
  %14 = load ptr, ptr %5, align 8
  %15 = load ptr, ptr %6, align 8
  %16 = call zeroext i1 @wtap_dump_file_write(ptr noundef %14, ptr noundef @k12_file_magic, i64 noundef 8, ptr noundef %15)
  br i1 %16, label %18, label %17

17:                                               ; preds = %3
  store i1 false, ptr %4, align 1
  store i32 1, ptr %9, align 4
  br label %69

18:                                               ; preds = %3
  %19 = load ptr, ptr %5, align 8
  %20 = load ptr, ptr %6, align 8
  %21 = call i64 @wtap_dump_file_seek(ptr noundef %19, i64 noundef 512, i32 noundef 0, ptr noundef %20)
  %22 = icmp eq i64 %21, -1
  br i1 %22, label %23, label %24

23:                                               ; preds = %18
  store i1 false, ptr %4, align 1
  store i32 1, ptr %9, align 4
  br label %69

24:                                               ; preds = %18
  %25 = load ptr, ptr %5, align 8
  %26 = getelementptr inbounds nuw %struct.wtap_dumper, ptr %25, i32 0, i32 6
  store i64 512, ptr %26, align 8
  %27 = load ptr, ptr %5, align 8
  %28 = getelementptr inbounds nuw %struct.wtap_dumper, ptr %27, i32 0, i32 10
  store ptr @k12_dump, ptr %28, align 8
  %29 = load ptr, ptr %5, align 8
  %30 = getelementptr inbounds nuw %struct.wtap_dumper, ptr %29, i32 0, i32 11
  store ptr @k12_dump_finish, ptr %30, align 8
  call void @llvm.lifetime.start.p0(i64 8, ptr %10) #14
  store i64 1, ptr %10, align 8
  call void @llvm.lifetime.start.p0(i64 8, ptr %11) #14
  store i64 12, ptr %11, align 8
  call void @llvm.lifetime.start.p0(i64 8, ptr %12) #14
  %31 = load i64, ptr %11, align 8
  %32 = icmp eq i64 %31, 1
  br i1 %32, label %33, label %36

33:                                               ; preds = %24
  %34 = load i64, ptr %10, align 8
  %35 = call noalias ptr @g_malloc(i64 noundef %34) #16
  store ptr %35, ptr %12, align 8
  br label %57

36:                                               ; preds = %24
  %37 = load i64, ptr %10, align 8
  %38 = call i1 @llvm.is.constant.i64(i64 %37)
  br i1 %38, label %39, label %52

39:                                               ; preds = %36
  %40 = load i64, ptr %11, align 8
  %41 = icmp eq i64 %40, 0
  br i1 %41, label %47, label %42

42:                                               ; preds = %39
  %43 = load i64, ptr %10, align 8
  %44 = load i64, ptr %11, align 8
  %45 = udiv i64 -1, %44
  %46 = icmp ule i64 %43, %45
  br i1 %46, label %47, label %52

47:                                               ; preds = %42, %39
  %48 = load i64, ptr %10, align 8
  %49 = load i64, ptr %11, align 8
  %50 = mul i64 %48, %49
  %51 = call noalias ptr @g_malloc(i64 noundef %50) #16
  store ptr %51, ptr %12, align 8
  br label %56

52:                                               ; preds = %42, %36
  %53 = load i64, ptr %10, align 8
  %54 = load i64, ptr %11, align 8
  %55 = call noalias ptr @g_malloc_n(i64 noundef %53, i64 noundef %54) #17
  store ptr %55, ptr %12, align 8
  br label %56

56:                                               ; preds = %52, %47
  br label %57

57:                                               ; preds = %56, %33
  %58 = load ptr, ptr %12, align 8
  store ptr %58, ptr %13, align 8
  call void @llvm.lifetime.end.p0(i64 8, ptr %12) #14
  call void @llvm.lifetime.end.p0(i64 8, ptr %11) #14
  call void @llvm.lifetime.end.p0(i64 8, ptr %10) #14
  %59 = load ptr, ptr %13, align 8
  store ptr %59, ptr %8, align 8
  %60 = load ptr, ptr %8, align 8
  %61 = load ptr, ptr %5, align 8
  %62 = getelementptr inbounds nuw %struct.wtap_dumper, ptr %61, i32 0, i32 7
  store ptr %60, ptr %62, align 8
  %63 = load ptr, ptr %8, align 8
  %64 = getelementptr inbounds nuw %struct.k12_dump_t, ptr %63, i32 0, i32 0
  store i32 512, ptr %64, align 4
  %65 = load ptr, ptr %8, align 8
  %66 = getelementptr inbounds nuw %struct.k12_dump_t, ptr %65, i32 0, i32 1
  store i32 0, ptr %66, align 4
  %67 = load ptr, ptr %8, align 8
  %68 = getelementptr inbounds nuw %struct.k12_dump_t, ptr %67, i32 0, i32 2
  store i32 512, ptr %68, align 4
  store i1 true, ptr %4, align 1
  store i32 1, ptr %9, align 4
  br label %69

69:                                               ; preds = %57, %23, %17
  call void @llvm.lifetime.end.p0(i64 8, ptr %8) #14
  %70 = load i1, ptr %4, align 1
  ret i1 %70
}