; Function Attrs: null_pointer_is_valid sspstrong uwtable
define internal noundef zeroext i1 @k12_dump_open(ptr noundef %0, ptr noundef %1, ptr readnone captures(none) %2) #0 {
  %4 = tail call zeroext i1 @wtap_dump_file_write(ptr noundef %0, ptr noundef nonnull @k12_file_magic, i64 noundef 8, ptr noundef %1)
  br i1 %4, label %5, label %16

5:                                                ; preds = %3
  %6 = tail call i64 @wtap_dump_file_seek(ptr noundef %0, i64 noundef 512, i32 noundef 0, ptr noundef %1)
  %7 = icmp eq i64 %6, -1
  br i1 %7, label %16, label %8

8:                                                ; preds = %5
  %9 = getelementptr inbounds nuw i8, ptr %0, i64 32
  store i64 512, ptr %9, align 8
  %10 = getelementptr inbounds nuw i8, ptr %0, i64 64
  store ptr @k12_dump, ptr %10, align 8
  %11 = getelementptr inbounds nuw i8, ptr %0, i64 72
  store ptr @k12_dump_finish, ptr %11, align 8
  %12 = tail call noalias dereferenceable_or_null(12) ptr @g_malloc(i64 noundef 12) #12
  %13 = getelementptr inbounds nuw i8, ptr %0, i64 40
  store ptr %12, ptr %13, align 8
  store i32 512, ptr %12, align 4
  %14 = getelementptr inbounds nuw i8, ptr %12, i64 4
  store i32 0, ptr %14, align 4
  %15 = getelementptr inbounds nuw i8, ptr %12, i64 8
  store i32 512, ptr %15, align 4
  br label %16

16:                                               ; preds = %5, %3, %8
  %.0 = phi i1 [ true, %8 ], [ false, %3 ], [ false, %5 ]
  ret i1 %.0
}